target datalayout = "e-m:e-p270:32:32-p271:32:32-p272:64:64-i64:64-i128:128-f80:128-n8:16:32:64-S128"
target triple = "x86_64-pc-linux-gnu"

%"struct.faiss::InvertedLists" = type <{ ptr, i64, i64, i8, [7 x i8] }>
%"struct.faiss::InvertedLists.base" = type <{ ptr, i64, i64, i8 }>
%"struct.faiss::HStackInvertedLists" = type { %"struct.faiss::ReadOnlyInvertedLists.base", %"class.std::vector.25" }
%"struct.faiss::ReadOnlyInvertedLists.base" = type { %"struct.faiss::InvertedLists.base" }
%"class.std::vector.25" = type { %"struct.std::_Vector_base.26" }
%"struct.std::_Vector_base.26" = type { %"struct.std::_Vector_base<const faiss::InvertedLists *, std::allocator<const faiss::InvertedLists *>>::_Vector_impl" }
%"struct.std::_Vector_base<const faiss::InvertedLists *, std::allocator<const faiss::InvertedLists *>>::_Vector_impl" = type { %"struct.std::_Vector_base<const faiss::InvertedLists *, std::allocator<const faiss::InvertedLists *>>::_Vector_impl_data" }
%"struct.std::_Vector_base<const faiss::InvertedLists *, std::allocator<const faiss::InvertedLists *>>::_Vector_impl_data" = type { ptr, ptr, ptr }
%"struct.faiss::InvertedLists::ScopedCodes" = type { ptr, ptr, i64 }

; Function Attrs: mustprogress nounwind uwtable
define linkonce_odr void @_ZN5faiss13InvertedLists11ScopedCodesD2Ev(ptr noundef nonnull align 8 dereferenceable(24) %0) unnamed_addr #1 comdat align 2 personality ptr @__gxx_personality_v0 {
  %2 = alloca ptr, align 8
  store ptr %0, ptr %2, align 8, !tbaa !78
  %3 = load ptr, ptr %2, align 8
  %4 = getelementptr inbounds nuw %"struct.faiss::InvertedLists::ScopedCodes", ptr %3, i32 0, i32 0
  %5 = load ptr, ptr %4, align 8, !tbaa !80
  %6 = getelementptr inbounds nuw %"struct.faiss::InvertedLists::ScopedCodes", ptr %3, i32 0, i32 2
  %7 = load i64, ptr %6, align 8, !tbaa !83
  %8 = getelementptr inbounds nuw %"struct.faiss::InvertedLists::ScopedCodes", ptr %3, i32 0, i32 1
  %9 = load ptr, ptr %8, align 8, !tbaa !82
  %10 = load ptr, ptr %5, align 8, !tbaa !17
  %11 = getelementptr inbounds ptr, ptr %10, i64 5
  %12 = load ptr, ptr %11, align 8
  invoke void %12(ptr noundef nonnull align 8 dereferenceable(25) %5, i64 noundef %7, ptr noundef %9)
          to label %13 unwind label %14

13:                                               ; preds = %1
  ret void

14:                                               ; preds = %1
  %15 = landingpad { ptr, i32 }
          catch ptr null
  %16 = extractvalue { ptr, i32 } %15, 0
  call void @__clang_call_terminate(ptr %16) #19
  unreachable
}

; Function Attrs: mustprogress nounwind uwtable
define linkonce_odr noundef ptr @_ZN5faiss13InvertedLists11ScopedCodes3getEv(ptr noundef nonnull align 8 dereferenceable(24) %0) #1 comdat align 2 {
  %2 = alloca ptr, align 8
  store ptr %0, ptr %2, align 8, !tbaa !78
  %3 = load ptr, ptr %2, align 8
  %4 = getelementptr inbounds nuw %"struct.faiss::InvertedLists::ScopedCodes", ptr %3, i32 0, i32 1
  %5 = load ptr, ptr %4, align 8, !tbaa !82
  ret ptr %5
}

; Function Attrs: mustprogress uwtable
define linkonce_odr void @_ZN5faiss13InvertedLists11ScopedCodesC2EPKS0_m(ptr noundef nonnull align 8 dereferenceable(24) %0, ptr noundef %1, i64 noundef %2) unnamed_addr #2 comdat align 2 {
  %4 = alloca ptr, align 8
  %5 = alloca ptr, align 8
  %6 = alloca i64, align 8
  store ptr %0, ptr %4, align 8, !tbaa !78
  store ptr %1, ptr %5, align 8, !tbaa !9
  store i64 %2, ptr %6, align 8, !tbaa !11
  %7 = load ptr, ptr %4, align 8
  %8 = getelementptr inbounds nuw %"struct.faiss::InvertedLists::ScopedCodes", ptr %7, i32 0, i32 0
  %9 = load ptr, ptr %5, align 8, !tbaa !9
  store ptr %9, ptr %8, align 8, !tbaa !80
  %10 = getelementptr inbounds nuw %"struct.faiss::InvertedLists::ScopedCodes", ptr %7, i32 0, i32 1
  %11 = load ptr, ptr %5, align 8, !tbaa !9
  %12 = load i64, ptr %6, align 8, !tbaa !11
  %13 = load ptr, ptr %11, align 8, !tbaa !17
  %14 = getelementptr inbounds ptr, ptr %13, i64 3
  %15 = load ptr, ptr %14, align 8
  %16 = call noundef ptr %15(ptr noundef nonnull align 8 dereferenceable(25) %11, i64 noundef %12)
  store ptr %16, ptr %10, align 8, !tbaa !82
  %17 = getelementptr inbounds nuw %"struct.faiss::InvertedLists::ScopedCodes", ptr %7, i32 0, i32 2
  %18 = load i64, ptr %6, align 8, !tbaa !11
  store i64 %18, ptr %17, align 8, !tbaa !83
  ret void
}

; Function Attrs: mustprogress nounwind uwtable
define linkonce_odr noundef nonnull align 8 dereferenceable(8) ptr @_ZNKSt6vectorIPKN5faiss13InvertedListsESaIS3_EEixEm(ptr noundef nonnull align 8 dereferenceable(24) %0, i64 noundef %1) #1 comdat align 2 {
  %3 = alloca ptr, align 8
  %4 = alloca i64, align 8
  store ptr %0, ptr %3, align 8, !tbaa !249
  store i64 %1, ptr %4, align 8, !tbaa !11
  %5 = load ptr, ptr %3, align 8
  %6 = getelementptr inbounds nuw %"struct.std::_Vector_base.26", ptr %5, i32 0, i32 0
  %7 = getelementptr inbounds nuw %"struct.std::_Vector_base<const faiss::InvertedLists *, std::allocator<const faiss::InvertedLists *>>::_Vector_impl_data", ptr %6, i32 0, i32 0
  %8 = load ptr, ptr %7, align 8, !tbaa !254
  %9 = load i64, ptr %4, align 8, !tbaa !11
  %10 = getelementptr inbounds nuw ptr, ptr %8, i64 %9
  ret ptr %10
}

; Function Attrs: mustprogress nounwind uwtable
define linkonce_odr noundef i64 @_ZNKSt6vectorIPKN5faiss13InvertedListsESaIS3_EE4sizeEv(ptr noundef nonnull align 8 dereferenceable(24) %0) #1 comdat align 2 {
  %2 = alloca ptr, align 8
  store ptr %0, ptr %2, align 8, !tbaa !249
  %3 = load ptr, ptr %2, align 8
  %4 = getelementptr inbounds nuw %"struct.std::_Vector_base.26", ptr %3, i32 0, i32 0
  %5 = getelementptr inbounds nuw %"struct.std::_Vector_base<const faiss::InvertedLists *, std::allocator<const faiss::InvertedLists *>>::_Vector_impl_data", ptr %4, i32 0, i32 1
  %6 = load ptr, ptr %5, align 8, !tbaa !251
  %7 = getelementptr inbounds nuw %"struct.std::_Vector_base.26", ptr %3, i32 0, i32 0
  %8 = getelementptr inbounds nuw %"struct.std::_Vector_base<const faiss::InvertedLists *, std::allocator<const faiss::InvertedLists *>>::_Vector_impl_data", ptr %7, i32 0, i32 0
  %9 = load ptr, ptr %8, align 8, !tbaa !254
  %10 = ptrtoint ptr %6 to i64
  %11 = ptrtoint ptr %9 to i64
  %12 = sub i64 %10, %11
  %13 = sdiv exact i64 %12, 8
  ret i64 %13
}

; Function Attrs: mustprogress uwtable
define noundef ptr @_ZNK5faiss19HStackInvertedLists9get_codesEm(ptr noundef nonnull align 8 dereferenceable(56) %0, i64 noundef %1) unnamed_addr #2 align 2 {
  %3 = alloca ptr, align 8
  %4 = alloca i64, align 8
  %5 = alloca ptr, align 8
  %6 = alloca ptr, align 8
  %7 = alloca i32, align 4
  %8 = alloca ptr, align 8
  %9 = alloca i64, align 8
  %10 = alloca %"struct.faiss::InvertedLists::ScopedCodes", align 8
  store ptr %0, ptr %3, align 8, !tbaa !35
  store i64 %1, ptr %4, align 8, !tbaa !11
  %11 = load ptr, ptr %3, align 8
  call void @llvm.lifetime.start.p0(i64 8, ptr %5) #6
  %12 = getelementptr inbounds nuw %"struct.faiss::InvertedLists", ptr %11, i32 0, i32 2
  %13 = load i64, ptr %12, align 8, !tbaa !19
  %14 = load i64, ptr %4, align 8, !tbaa !11
  %15 = load ptr, ptr %11, align 8, !tbaa !17
  %16 = getelementptr inbounds ptr, ptr %15, i64 2
  %17 = load ptr, ptr %16, align 8
  %18 = call noundef i64 %17(ptr noundef nonnull align 8 dereferenceable(56) %11, i64 noundef %14)
  %19 = mul i64 %13, %18
  %20 = call noalias noundef nonnull ptr @_Znam(i64 noundef %19) #21
  store ptr %20, ptr %5, align 8, !tbaa !13
  call void @llvm.lifetime.start.p0(i64 8, ptr %6) #6
  %21 = load ptr, ptr %5, align 8, !tbaa !13
  store ptr %21, ptr %6, align 8, !tbaa !13
  call void @llvm.lifetime.start.p0(i64 4, ptr %7) #6
  store i32 0, ptr %7, align 4, !tbaa !22
  br label %22

22:                                               ; preds = %56, %2
  %23 = load i32, ptr %7, align 4, !tbaa !22
  %24 = sext i32 %23 to i64
  %25 = getelementptr inbounds nuw %"struct.faiss::HStackInvertedLists", ptr %11, i32 0, i32 1
  %26 = call noundef i64 @_ZNKSt6vectorIPKN5faiss13InvertedListsESaIS3_EE4sizeEv(ptr noundef nonnull align 8 dereferenceable(24) %25) #6
  %27 = icmp ult i64 %24, %26
  br i1 %27, label %29, label %28

28:                                               ; preds = %22
  call void @llvm.lifetime.end.p0(i64 4, ptr %7) #6
  br label %59

29:                                               ; preds = %22
  call void @llvm.lifetime.start.p0(i64 8, ptr %8) #6
  %30 = getelementptr inbounds nuw %"struct.faiss::HStackInvertedLists", ptr %11, i32 0, i32 1
  %31 = load i32, ptr %7, align 4, !tbaa !22
  %32 = sext i32 %31 to i64
  %33 = call noundef nonnull align 8 dereferenceable(8) ptr @_ZNKSt6vectorIPKN5faiss13InvertedListsESaIS3_EEixEm(ptr noundef nonnull align 8 dereferenceable(24) %30, i64 noundef %32) #6
  %34 = load ptr, ptr %33, align 8, !tbaa !9
  store ptr %34, ptr %8, align 8, !tbaa !9
  call void @llvm.lifetime.start.p0(i64 8, ptr %9) #6
  %35 = load ptr, ptr %8, align 8, !tbaa !9
  %36 = load i64, ptr %4, align 8, !tbaa !11
  %37 = load ptr, ptr %35, align 8, !tbaa !17
  %38 = getelementptr inbounds ptr, ptr %37, i64 2
  %39 = load ptr, ptr %38, align 8
  %40 = call noundef i64 %39(ptr noundef nonnull align 8 dereferenceable(25) %35, i64 noundef %36)
  %41 = getelementptr inbounds nuw %"struct.faiss::InvertedLists", ptr %11, i32 0, i32 2
  %42 = load i64, ptr %41, align 8, !tbaa !19
  %43 = mul i64 %40, %42
  store i64 %43, ptr %9, align 8, !tbaa !11
  %44 = load i64, ptr %9, align 8, !tbaa !11
  %45 = icmp ugt i64 %44, 0
  br i1 %45, label %46, label %55

46:                                               ; preds = %29
  %47 = load ptr, ptr %6, align 8, !tbaa !13
  call void @llvm.lifetime.start.p0(i64 24, ptr %10) #6
  %48 = load ptr, ptr %8, align 8, !tbaa !9
  %49 = load i64, ptr %4, align 8, !tbaa !11
  call void @_ZN5faiss13InvertedLists11ScopedCodesC2EPKS0_m(ptr noundef nonnull align 8 dereferenceable(24) %10, ptr noundef %48, i64 noundef %49)
  %50 = call noundef ptr @_ZN5faiss13InvertedLists11ScopedCodes3getEv(ptr noundef nonnull align 8 dereferenceable(24) %10)
  %51 = load i64, ptr %9, align 8, !tbaa !11
  call void @llvm.memcpy.p0.p0.i64(ptr align 1 %47, ptr align 1 %50, i64 %51, i1 false)
  call void @_ZN5faiss13InvertedLists11ScopedCodesD2Ev(ptr noundef nonnull align 8 dereferenceable(24) %10) #6
  call void @llvm.lifetime.end.p0(i64 24, ptr %10) #6
  %52 = load i64, ptr %9, align 8, !tbaa !11
  %53 = load ptr, ptr %6, align 8, !tbaa !13
  %54 = getelementptr inbounds nuw i8, ptr %53, i64 %52
  store ptr %54, ptr %6, align 8, !tbaa !13
  br label %55

55:                                               ; preds = %46, %29
  call void @llvm.lifetime.end.p0(i64 8, ptr %9) #6
  call void @llvm.lifetime.end.p0(i64 8, ptr %8) #6
  br label %56

56:                                               ; preds = %55
  %57 = load i32, ptr %7, align 4, !tbaa !22
  %58 = add nsw i32 %57, 1
  store i32 %58, ptr %7, align 4, !tbaa !22
  br label %22, !llvm.loop !38

59:                                               ; preds = %28
  %60 = load ptr, ptr %5, align 8, !tbaa !13
  call void @llvm.lifetime.end.p0(i64 8, ptr %6) #6
  call void @llvm.lifetime.end.p0(i64 8, ptr %5) #6
  ret ptr %60
}