; Function Attrs: mustprogress uwtable
define noundef nonnull ptr @_ZNK5faiss19HStackInvertedLists9get_codesEm(ptr noundef nonnull align 8 dereferenceable(56) %0, i64 noundef %1) unnamed_addr #2 align 2 personality ptr @__gxx_personality_v0 {
  %3 = getelementptr inbounds nuw i8, ptr %0, i64 16
  %4 = load i64, ptr %3, align 8, !tbaa !10
  %5 = load ptr, ptr %0, align 8, !tbaa !4
  %6 = getelementptr inbounds nuw i8, ptr %5, i64 16
  %7 = load ptr, ptr %6, align 8
  %8 = tail call noundef i64 %7(ptr noundef nonnull align 8 dereferenceable(56) %0, i64 noundef %1)
  %9 = mul i64 %8, %4
  %10 = tail call noalias noundef nonnull ptr @_Znam(i64 noundef %9) #32
  %11 = getelementptr inbounds nuw i8, ptr %0, i64 32
  %12 = getelementptr inbounds nuw i8, ptr %0, i64 40
  %13 = load ptr, ptr %12, align 8, !tbaa !57
  %14 = load ptr, ptr %11, align 8, !tbaa !53
  %.not21 = icmp eq ptr %13, %14
  br i1 %.not21, label %._crit_edge, label %.lr.ph

._crit_edge:                                      ; preds = %36, %2
  ret ptr %10

.lr.ph:                                           ; preds = %2, %36
  %indvars.iv = phi i64 [ %indvars.iv.next, %36 ], [ 0, %2 ]
  %15 = phi ptr [ %38, %36 ], [ %14, %2 ]
  %.020 = phi ptr [ %.1, %36 ], [ %10, %2 ]
  %16 = getelementptr inbounds nuw ptr, ptr %15, i64 %indvars.iv
  %17 = load ptr, ptr %16, align 8, !tbaa !58
  %18 = load ptr, ptr %17, align 8, !tbaa !4
  %19 = getelementptr inbounds nuw i8, ptr %18, i64 16
  %20 = load ptr, ptr %19, align 8
  %21 = tail call noundef i64 %20(ptr noundef nonnull align 8 dereferenceable(25) %17, i64 noundef %1)
  %22 = load i64, ptr %3, align 8, !tbaa !10
  %23 = mul i64 %22, %21
  %.not = icmp eq i64 %23, 0
  br i1 %.not, label %36, label %24

24:                                               ; preds = %.lr.ph
  %25 = load ptr, ptr %17, align 8, !tbaa !4
  %26 = getelementptr inbounds nuw i8, ptr %25, i64 24
  %27 = load ptr, ptr %26, align 8
  %28 = tail call noundef ptr %27(ptr noundef nonnull align 8 dereferenceable(25) %17, i64 noundef %1)
  tail call void @llvm.memcpy.p0.p0.i64(ptr align 1 %.020, ptr align 1 %28, i64 %23, i1 false)
  %29 = load ptr, ptr %17, align 8, !tbaa !4
  %30 = getelementptr inbounds nuw i8, ptr %29, i64 40
  %31 = load ptr, ptr %30, align 8
  invoke void %31(ptr noundef nonnull align 8 dereferenceable(25) %17, i64 noundef %1, ptr noundef %28)
          to label %_ZN5faiss13InvertedLists11ScopedCodesD2Ev.exit unwind label %32

32:                                               ; preds = %24
  %33 = landingpad { ptr, i32 }
          catch ptr null
  %34 = extractvalue { ptr, i32 } %33, 0
  tail call void @__clang_call_terminate(ptr %34) #29
  unreachable

_ZN5faiss13InvertedLists11ScopedCodesD2Ev.exit:   ; preds = %24
  %35 = getelementptr inbounds nuw i8, ptr %.020, i64 %23
  br label %36

36:                                               ; preds = %_ZN5faiss13InvertedLists11ScopedCodesD2Ev.exit, %.lr.ph
  %.1 = phi ptr [ %35, %_ZN5faiss13InvertedLists11ScopedCodesD2Ev.exit ], [ %.020, %.lr.ph ]
  %indvars.iv.next = add nuw nsw i64 %indvars.iv, 1
  %37 = load ptr, ptr %12, align 8, !tbaa !57
  %38 = load ptr, ptr %11, align 8, !tbaa !53
  %39 = ptrtoint ptr %37 to i64
  %40 = ptrtoint ptr %38 to i64
  %41 = sub i64 %39, %40
  %42 = ashr exact i64 %41, 3
  %43 = icmp ugt i64 %42, %indvars.iv.next
  br i1 %43, label %.lr.ph, label %._crit_edge, !llvm.loop !60
}